; Function Attrs: nounwind uwtable
define nonnull ptr @l_Lean_Elab_Term_MatchExpr_shouldSaveActual___lambda__1___boxed(ptr noundef %0) #0 {
  %2 = getelementptr inbounds nuw i8, ptr %0, i64 24
  %3 = load ptr, ptr %2, align 8, !tbaa !4
  %4 = ptrtoint ptr %3 to i64
  %5 = and i64 %4, 1
  %.not.i.i = icmp eq i64 %5, 0
  br i1 %.not.i.i, label %9, label %6

6:                                                ; preds = %1
  %7 = lshr i64 %4, 1
  %8 = trunc i64 %7 to i32
  br label %lean_obj_tag.exit.i

9:                                                ; preds = %1
  %10 = getelementptr i8, ptr %3, i64 4
  %.val.i.i = load i32, ptr %10, align 4
  %11 = lshr i32 %.val.i.i, 24
  br label %lean_obj_tag.exit.i

lean_obj_tag.exit.i:                              ; preds = %9, %6
  %.0.i.i = phi i32 [ %8, %6 ], [ %11, %9 ]
  %12 = icmp eq i32 %.0.i.i, 0
  br i1 %12, label %l_Lean_Elab_Term_MatchExpr_shouldSaveActual___lambda__1.exit, label %13

13:                                               ; preds = %lean_obj_tag.exit.i
  %14 = getelementptr inbounds nuw i8, ptr %3, i64 8
  %15 = load ptr, ptr %14, align 8, !tbaa !4
  %16 = ptrtoint ptr %15 to i64
  %17 = and i64 %16, 1
  %.not.i7.i = icmp eq i64 %17, 0
  br i1 %.not.i7.i, label %21, label %18

18:                                               ; preds = %13
  %19 = lshr i64 %16, 1
  %20 = trunc i64 %19 to i32
  br label %lean_obj_tag.exit10.i

21:                                               ; preds = %13
  %22 = getelementptr i8, ptr %15, i64 4
  %.val.i9.i = load i32, ptr %22, align 4
  %23 = lshr i32 %.val.i9.i, 24
  br label %lean_obj_tag.exit10.i

lean_obj_tag.exit10.i:                            ; preds = %21, %18
  %.0.i8.i = phi i32 [ %20, %18 ], [ %23, %21 ]
  %.not3 = icmp eq i32 %.0.i8.i, 0
  %24 = select i1 %.not3, i64 1, i64 3
  br label %l_Lean_Elab_Term_MatchExpr_shouldSaveActual___lambda__1.exit

l_Lean_Elab_Term_MatchExpr_shouldSaveActual___lambda__1.exit: ; preds = %lean_obj_tag.exit.i, %lean_obj_tag.exit10.i
  %.0.i = phi i64 [ %24, %lean_obj_tag.exit10.i ], [ 1, %lean_obj_tag.exit.i ]
  %25 = ptrtoint ptr %0 to i64
  %26 = and i64 %25, 1
  %.not = icmp eq i64 %26, 0
  br i1 %.not, label %27, label %lean_dec.exit

27:                                               ; preds = %l_Lean_Elab_Term_MatchExpr_shouldSaveActual___lambda__1.exit
  %28 = load i32, ptr %0, align 4, !tbaa !8
  %29 = icmp sgt i32 %28, 1
  br i1 %29, label %30, label %32, !prof !11

30:                                               ; preds = %27
  %31 = add nsw i32 %28, -1
  store i32 %31, ptr %0, align 4, !tbaa !8
  br label %lean_dec.exit

32:                                               ; preds = %27
  %.not.i = icmp eq i32 %28, 0
  br i1 %.not.i, label %lean_dec.exit, label %33

33:                                               ; preds = %32
  tail call void @lean_dec_ref_cold(ptr noundef nonnull %0) #6
  br label %lean_dec.exit

lean_dec.exit:                                    ; preds = %33, %32, %30, %l_Lean_Elab_Term_MatchExpr_shouldSaveActual___lambda__1.exit
  %34 = inttoptr i64 %.0.i to ptr
  ret ptr %34
}